; Function Attrs: mustprogress uwtable
define noundef i32 @_ZN12colvarmodule18write_output_filesEv(ptr nocapture noundef nonnull readonly align 8 dereferenceable(616) %0) local_unnamed_addr #3 align 2 {
  tail call void @_ZN12colvarmodule14increase_depthEv()
  %2 = getelementptr inbounds i8, ptr %0, i64 160
  %3 = load ptr, ptr %2, align 8
  %4 = getelementptr inbounds i8, ptr %0, i64 168
  %5 = load ptr, ptr %4, align 8
  %.not910 = icmp eq ptr %3, %5
  br i1 %.not910, label %._crit_edge, label %.lr.ph

.lr.ph:                                           ; preds = %1, %22
  %.012 = phi i32 [ %28, %22 ], [ 0, %1 ]
  %.sroa.03.011 = phi ptr [ %29, %22 ], [ %3, %1 ]
  %6 = load ptr, ptr %.sroa.03.011, align 8
  %7 = getelementptr inbounds i8, ptr %6, i64 112
  %8 = load i64, ptr %7, align 8
  %9 = icmp eq i64 %8, 0
  br i1 %9, label %16, label %10

10:                                               ; preds = %.lr.ph
  %11 = load i64, ptr @_ZN12colvarmodule2itE, align 8
  %12 = load i64, ptr @_ZN12colvarmodule10it_restartE, align 8
  %13 = icmp eq i64 %11, %12
  br i1 %13, label %16, label %14

14:                                               ; preds = %10
  %15 = urem i64 %11, %8
  %.not = icmp eq i64 %15, 0
  br i1 %.not, label %22, label %16

16:                                               ; preds = %14, %10, %.lr.ph
  %17 = load ptr, ptr %6, align 8
  %18 = getelementptr inbounds i8, ptr %17, i64 232
  %19 = load ptr, ptr %18, align 8
  %20 = tail call noundef i32 %19(ptr noundef nonnull align 8 dereferenceable(312) %6)
  %21 = or i32 %20, %.012
  %.pre = load ptr, ptr %.sroa.03.011, align 8
  br label %22

22:                                               ; preds = %16, %14
  %23 = phi ptr [ %.pre, %16 ], [ %6, %14 ]
  %.1 = phi i32 [ %21, %16 ], [ %.012, %14 ]
  %24 = load ptr, ptr %23, align 8
  %25 = getelementptr inbounds i8, ptr %24, i64 240
  %26 = load ptr, ptr %25, align 8
  %27 = tail call noundef i32 %26(ptr noundef nonnull align 8 dereferenceable(312) %23)
  %28 = or i32 %27, %.1
  %29 = getelementptr inbounds i8, ptr %.sroa.03.011, i64 8
  %30 = load ptr, ptr %4, align 8
  %.not9 = icmp eq ptr %29, %30
  br i1 %.not9, label %._crit_edge, label %.lr.ph, !llvm.loop !211

._crit_edge:                                      ; preds = %22, %1
  %.0.lcssa = phi i32 [ 0, %1 ], [ %28, %22 ]
  tail call void @_ZN12colvarmodule14decrease_depthEv()
  ret i32 %.0.lcssa
}